target datalayout = "e-m:e-p270:32:32-p271:32:32-p272:64:64-i64:64-i128:128-f80:128-n8:16:32:64-S128"
target triple = "x86_64-pc-linux-gnu"

%struct._value_string_ext = type { ptr, i32, i32, ptr, ptr }
%struct._dcerpc_info = type { ptr, i32, i64, i8, i8, i8, i32, i32, i32, i32, i32, i32, i32, i32, ptr, ptr, ptr, ptr, %struct.anon }
%struct.anon = type { i8, ptr, ptr, ptr, i8 }
%struct._packet_info = type { ptr, ptr, i32, i32, %struct.nstime_t, %struct.nstime_t, %struct.nstime_t, i8, ptr, ptr, ptr, ptr, %struct._address, %struct._address, %struct._address, %struct._address, %struct._address, %struct._address, i32, ptr, i8, [3 x i8], %struct.anon.0, i32, i32, i32, i32, ptr, i8, ptr, ptr, i16, i16, i32, i32, i16, i32, i32, ptr, ptr, ptr, i8, i8, i16, i16, i16, i32, i16, i16, ptr, ptr, ptr, ptr, ptr, i32, i32 }
%struct.nstime_t = type { i64, i32 }
%struct._address = type { i32, i32, ptr, ptr }
%struct.anon.0 = type { i8, [3 x i8] }

@hf_error_st = internal global i32 0, align 4
@hf_fileexp_gettime_syncdispersion = internal global i32 0, align 4
@hf_fileexp_gettime_syncdistance = internal global i32 0, align 4
@hf_fileexp_gettime_usecondsp = internal global i32 0, align 4
@hf_fileexp_gettime_secondsp = internal global i32 0, align 4
@.str.346 = private unnamed_addr constant [3 x i8] c"%u\00", align 1
@dce_error_vals_ext = external global %struct._value_string_ext, align 8
@.str.373 = private unnamed_addr constant [10 x i8] c"%s st:%s \00", align 1
@.str.375 = private unnamed_addr constant [8 x i8] c" st:%s \00", align 1
@.str.477 = private unnamed_addr constant [62 x i8] c" Secondsp:%u  Usecondsp:%u SyncDistance:/%u SyncDispersion:%u\00", align 1
@.str.478 = private unnamed_addr constant [14 x i8] c"GetTime reply\00", align 1

; Function Attrs: null_pointer_is_valid sspstrong uwtable
define internal i32 @fileexp_dissect_gettime_resp(ptr noundef %0, i32 noundef %1, ptr noundef %2, ptr noundef %3, ptr noundef %4, ptr noundef %5) #0 {
  %7 = alloca i32, align 4
  %8 = alloca ptr, align 8
  %9 = alloca i32, align 4
  %10 = alloca ptr, align 8
  %11 = alloca ptr, align 8
  %12 = alloca ptr, align 8
  %13 = alloca ptr, align 8
  %14 = alloca i32, align 4
  %15 = alloca i32, align 4
  %16 = alloca i32, align 4
  %17 = alloca i32, align 4
  %18 = alloca i32, align 4
  %19 = alloca i32, align 4
  %20 = alloca ptr, align 8
  store ptr %0, ptr %8, align 8
  store i32 %1, ptr %9, align 4
  store ptr %2, ptr %10, align 8
  store ptr %3, ptr %11, align 8
  store ptr %4, ptr %12, align 8
  store ptr %5, ptr %13, align 8
  call void @llvm.lifetime.start.p0(i64 4, ptr %14) #4
  call void @llvm.lifetime.start.p0(i64 4, ptr %15) #4
  call void @llvm.lifetime.start.p0(i64 4, ptr %16) #4
  call void @llvm.lifetime.start.p0(i64 4, ptr %17) #4
  %21 = load ptr, ptr %12, align 8
  %22 = getelementptr inbounds nuw %struct._dcerpc_info, ptr %21, i32 0, i32 4
  %23 = load i8, ptr %22, align 1, !range !6, !noundef !7
  %24 = trunc i8 %23 to i1
  br i1 %24, label %25, label %27

25:                                               ; preds = %6
  %26 = load i32, ptr %9, align 4
  store i32 %26, ptr %7, align 4
  store i32 1, ptr %18, align 4
  br label %91

27:                                               ; preds = %6
  %28 = load ptr, ptr %8, align 8
  %29 = load i32, ptr %9, align 4
  %30 = load ptr, ptr %10, align 8
  %31 = load ptr, ptr %11, align 8
  %32 = load ptr, ptr %12, align 8
  %33 = load ptr, ptr %13, align 8
  %34 = load i32, ptr @hf_fileexp_gettime_secondsp, align 4
  %35 = call i32 @dissect_ndr_uint32(ptr noundef %28, i32 noundef %29, ptr noundef %30, ptr noundef %31, ptr noundef %32, ptr noundef %33, i32 noundef %34, ptr noundef %14)
  store i32 %35, ptr %9, align 4
  %36 = load ptr, ptr %8, align 8
  %37 = load i32, ptr %9, align 4
  %38 = load ptr, ptr %10, align 8
  %39 = load ptr, ptr %11, align 8
  %40 = load ptr, ptr %12, align 8
  %41 = load ptr, ptr %13, align 8
  %42 = load i32, ptr @hf_fileexp_gettime_usecondsp, align 4
  %43 = call i32 @dissect_ndr_uint32(ptr noundef %36, i32 noundef %37, ptr noundef %38, ptr noundef %39, ptr noundef %40, ptr noundef %41, i32 noundef %42, ptr noundef %15)
  store i32 %43, ptr %9, align 4
  %44 = load ptr, ptr %8, align 8
  %45 = load i32, ptr %9, align 4
  %46 = load ptr, ptr %10, align 8
  %47 = load ptr, ptr %11, align 8
  %48 = load ptr, ptr %12, align 8
  %49 = load ptr, ptr %13, align 8
  %50 = load i32, ptr @hf_fileexp_gettime_syncdistance, align 4
  %51 = call i32 @dissect_ndr_uint32(ptr noundef %44, i32 noundef %45, ptr noundef %46, ptr noundef %47, ptr noundef %48, ptr noundef %49, i32 noundef %50, ptr noundef %16)
  store i32 %51, ptr %9, align 4
  %52 = load ptr, ptr %8, align 8
  %53 = load i32, ptr %9, align 4
  %54 = load ptr, ptr %10, align 8
  %55 = load ptr, ptr %11, align 8
  %56 = load ptr, ptr %12, align 8
  %57 = load ptr, ptr %13, align 8
  %58 = load i32, ptr @hf_fileexp_gettime_syncdispersion, align 4
  %59 = call i32 @dissect_ndr_uint32(ptr noundef %52, i32 noundef %53, ptr noundef %54, ptr noundef %55, ptr noundef %56, ptr noundef %57, i32 noundef %58, ptr noundef %17)
  store i32 %59, ptr %9, align 4
  %60 = load ptr, ptr %10, align 8
  %61 = getelementptr inbounds nuw %struct._packet_info, ptr %60, i32 0, i32 1
  %62 = load ptr, ptr %61, align 8
  %63 = load i32, ptr %14, align 4
  %64 = load i32, ptr %15, align 4
  %65 = load i32, ptr %16, align 4
  %66 = load i32, ptr %17, align 4
  call void (ptr, i32, ptr, ...) @col_append_fstr(ptr noundef %62, i32 noundef 25, ptr noundef @.str.477, i32 noundef %63, i32 noundef %64, i32 noundef %65, i32 noundef %66)
  call void @llvm.lifetime.start.p0(i64 4, ptr %19) #4
  call void @llvm.lifetime.start.p0(i64 8, ptr %20) #4
  %67 = load ptr, ptr %8, align 8
  %68 = load i32, ptr %9, align 4
  %69 = load ptr, ptr %10, align 8
  %70 = load ptr, ptr %11, align 8
  %71 = load ptr, ptr %12, align 8
  %72 = load ptr, ptr %13, align 8
  %73 = load i32, ptr @hf_error_st, align 4
  %74 = call i32 @dissect_ndr_uint32(ptr noundef %67, i32 noundef %68, ptr noundef %69, ptr noundef %70, ptr noundef %71, ptr noundef %72, i32 noundef %73, ptr noundef %19)
  store i32 %74, ptr %9, align 4
  %75 = load i32, ptr %19, align 4
  %76 = call ptr @val_to_str_ext(i32 noundef %75, ptr noundef @dce_error_vals_ext, ptr noundef @.str.346)
  store ptr %76, ptr %20, align 8
  %77 = load i32, ptr %19, align 4
  %78 = icmp ne i32 %77, 0
  br i1 %78, label %79, label %84

79:                                               ; preds = %27
  %80 = load ptr, ptr %10, align 8
  %81 = getelementptr inbounds nuw %struct._packet_info, ptr %80, i32 0, i32 1
  %82 = load ptr, ptr %81, align 8
  %83 = load ptr, ptr %20, align 8
  call void (ptr, i32, ptr, ...) @col_add_fstr(ptr noundef %82, i32 noundef 25, ptr noundef @.str.373, ptr noundef @.str.478, ptr noundef %83)
  br label %89

84:                                               ; preds = %27
  %85 = load ptr, ptr %10, align 8
  %86 = getelementptr inbounds nuw %struct._packet_info, ptr %85, i32 0, i32 1
  %87 = load ptr, ptr %86, align 8
  %88 = load ptr, ptr %20, align 8
  call void (ptr, i32, ptr, ...) @col_append_fstr(ptr noundef %87, i32 noundef 25, ptr noundef @.str.375, ptr noundef %88)
  br label %89

89:                                               ; preds = %84, %79
  call void @llvm.lifetime.end.p0(i64 8, ptr %20) #4
  call void @llvm.lifetime.end.p0(i64 4, ptr %19) #4
  %90 = load i32, ptr %9, align 4
  store i32 %90, ptr %7, align 4
  store i32 1, ptr %18, align 4
  br label %91

91:                                               ; preds = %89, %25
  call void @llvm.lifetime.end.p0(i64 4, ptr %17) #4
  call void @llvm.lifetime.end.p0(i64 4, ptr %16) #4
  call void @llvm.lifetime.end.p0(i64 4, ptr %15) #4
  call void @llvm.lifetime.end.p0(i64 4, ptr %14) #4
  %92 = load i32, ptr %7, align 4
  ret i32 %92
}