; Function Attrs: null_pointer_is_valid sspstrong uwtable
define internal i32 @fileexp_dissect_gettime_resp(ptr noundef %0, i32 noundef %1, ptr noundef %2, ptr noundef %3, ptr noundef %4, ptr noundef %5) #0 {
  %7 = alloca i32, align 4
  %8 = alloca i32, align 4
  %9 = alloca i32, align 4
  %10 = alloca i32, align 4
  %11 = alloca i32, align 4
  call void @llvm.lifetime.start.p0(i64 4, ptr nonnull %7) #4
  call void @llvm.lifetime.start.p0(i64 4, ptr nonnull %8) #4
  call void @llvm.lifetime.start.p0(i64 4, ptr nonnull %9) #4
  call void @llvm.lifetime.start.p0(i64 4, ptr nonnull %10) #4
  %12 = getelementptr inbounds nuw i8, ptr %4, i64 25
  %13 = load i8, ptr %12, align 1, !range !6, !noundef !7
  %14 = trunc nuw i8 %13 to i1
  br i1 %14, label %39, label %15

15:                                               ; preds = %6
  %16 = load i32, ptr @hf_fileexp_gettime_secondsp, align 4
  %17 = call i32 @dissect_ndr_uint32(ptr noundef %0, i32 noundef %1, ptr noundef %2, ptr noundef %3, ptr noundef %4, ptr noundef %5, i32 noundef %16, ptr noundef nonnull %7)
  %18 = load i32, ptr @hf_fileexp_gettime_usecondsp, align 4
  %19 = call i32 @dissect_ndr_uint32(ptr noundef %0, i32 noundef %17, ptr noundef %2, ptr noundef %3, ptr noundef %4, ptr noundef %5, i32 noundef %18, ptr noundef nonnull %8)
  %20 = load i32, ptr @hf_fileexp_gettime_syncdistance, align 4
  %21 = call i32 @dissect_ndr_uint32(ptr noundef %0, i32 noundef %19, ptr noundef %2, ptr noundef %3, ptr noundef %4, ptr noundef %5, i32 noundef %20, ptr noundef nonnull %9)
  %22 = load i32, ptr @hf_fileexp_gettime_syncdispersion, align 4
  %23 = call i32 @dissect_ndr_uint32(ptr noundef %0, i32 noundef %21, ptr noundef %2, ptr noundef %3, ptr noundef %4, ptr noundef %5, i32 noundef %22, ptr noundef nonnull %10)
  %24 = getelementptr inbounds nuw i8, ptr %2, i64 8
  %25 = load ptr, ptr %24, align 8
  %26 = load i32, ptr %7, align 4
  %27 = load i32, ptr %8, align 4
  %28 = load i32, ptr %9, align 4
  %29 = load i32, ptr %10, align 4
  call void (ptr, i32, ptr, ...) @col_append_fstr(ptr noundef %25, i32 noundef 25, ptr noundef nonnull @.str.477, i32 noundef %26, i32 noundef %27, i32 noundef %28, i32 noundef %29)
  call void @llvm.lifetime.start.p0(i64 4, ptr nonnull %11) #4
  %30 = load i32, ptr @hf_error_st, align 4
  %31 = call i32 @dissect_ndr_uint32(ptr noundef %0, i32 noundef %23, ptr noundef %2, ptr noundef %3, ptr noundef %4, ptr noundef %5, i32 noundef %30, ptr noundef nonnull %11)
  %32 = load i32, ptr %11, align 4
  %33 = call ptr @val_to_str_ext(i32 noundef %32, ptr noundef nonnull @dce_error_vals_ext, ptr noundef nonnull @.str.346)
  %34 = load i32, ptr %11, align 4
  %.not = icmp eq i32 %34, 0
  %35 = load ptr, ptr %24, align 8
  br i1 %.not, label %37, label %36

36:                                               ; preds = %15
  call void (ptr, i32, ptr, ...) @col_add_fstr(ptr noundef %35, i32 noundef 25, ptr noundef nonnull @.str.373, ptr noundef nonnull @.str.478, ptr noundef %33)
  br label %38

37:                                               ; preds = %15
  call void (ptr, i32, ptr, ...) @col_append_fstr(ptr noundef %35, i32 noundef 25, ptr noundef nonnull @.str.375, ptr noundef %33)
  br label %38

38:                                               ; preds = %37, %36
  call void @llvm.lifetime.end.p0(i64 4, ptr nonnull %11) #4
  br label %39

39:                                               ; preds = %6, %38
  %.0 = phi i32 [ %31, %38 ], [ %1, %6 ]
  call void @llvm.lifetime.end.p0(i64 4, ptr nonnull %10) #4
  call void @llvm.lifetime.end.p0(i64 4, ptr nonnull %9) #4
  call void @llvm.lifetime.end.p0(i64 4, ptr nonnull %8) #4
  call void @llvm.lifetime.end.p0(i64 4, ptr nonnull %7) #4
  ret i32 %.0
}